; Function Attrs: nounwind uwtable
define hidden void @evmap_delete_all_(ptr noundef readonly captures(none) %0) local_unnamed_addr #1 {
  %2 = getelementptr inbounds nuw i8, ptr %0, i64 824
  %3 = getelementptr inbounds nuw i8, ptr %0, i64 832
  %4 = load i32, ptr %3, align 8
  %5 = icmp sgt i32 %4, 0
  br i1 %5, label %.lr.ph.i, label %evmap_signal_foreach_signal.exit

.lr.ph.i:                                         ; preds = %1, %.thread.i
  %.pre.i14 = phi i32 [ %.pre.i15, %.thread.i ], [ %4, %1 ]
  %6 = phi i32 [ %15, %.thread.i ], [ %4, %1 ]
  %indvars.iv.i = phi i64 [ %indvars.iv.next.i, %.thread.i ], [ 0, %1 ]
  %7 = load ptr, ptr %2, align 8
  %8 = getelementptr inbounds nuw ptr, ptr %7, i64 %indvars.iv.i
  %9 = load ptr, ptr %8, align 8
  %.not.i = icmp eq ptr %9, null
  br i1 %.not.i, label %.thread.i, label %10

10:                                               ; preds = %.lr.ph.i
  %11 = load ptr, ptr %9, align 8
  %.not2.i.i = icmp eq ptr %11, null
  br i1 %.not2.i.i, label %.thread.i, label %.lr.ph.i.i

.lr.ph.i.i:                                       ; preds = %10, %.lr.ph.i.i
  %12 = phi ptr [ %14, %.lr.ph.i.i ], [ %11, %10 ]
  %13 = tail call i32 @event_del(ptr noundef nonnull %12) #7
  %14 = load ptr, ptr %9, align 8
  %.not.i.i = icmp eq ptr %14, null
  br i1 %.not.i.i, label %..thread_crit_edge.i.loopexit, label %.lr.ph.i.i, !llvm.loop !12

..thread_crit_edge.i.loopexit:                    ; preds = %.lr.ph.i.i
  %.pre.i.pre = load i32, ptr %3, align 8
  br label %.thread.i

.thread.i:                                        ; preds = %10, %..thread_crit_edge.i.loopexit, %.lr.ph.i
  %.pre.i15 = phi i32 [ %.pre.i14, %.lr.ph.i ], [ %.pre.i.pre, %..thread_crit_edge.i.loopexit ], [ %.pre.i14, %10 ]
  %15 = phi i32 [ %6, %.lr.ph.i ], [ %.pre.i.pre, %..thread_crit_edge.i.loopexit ], [ %.pre.i14, %10 ]
  %indvars.iv.next.i = add nuw nsw i64 %indvars.iv.i, 1
  %16 = sext i32 %15 to i64
  %17 = icmp slt i64 %indvars.iv.next.i, %16
  br i1 %17, label %.lr.ph.i, label %evmap_signal_foreach_signal.exit, !llvm.loop !11

evmap_signal_foreach_signal.exit:                 ; preds = %.thread.i, %1
  %18 = getelementptr inbounds nuw i8, ptr %0, i64 808
  %19 = getelementptr inbounds nuw i8, ptr %0, i64 816
  %20 = load i32, ptr %19, align 8
  %21 = icmp sgt i32 %20, 0
  br i1 %21, label %.lr.ph.i3, label %evmap_io_foreach_fd.exit

.lr.ph.i3:                                        ; preds = %evmap_signal_foreach_signal.exit, %.thread.i9
  %.pre.i817 = phi i32 [ %.pre.i818, %.thread.i9 ], [ %20, %evmap_signal_foreach_signal.exit ]
  %22 = phi i32 [ %31, %.thread.i9 ], [ %20, %evmap_signal_foreach_signal.exit ]
  %indvars.iv.i4 = phi i64 [ %indvars.iv.next.i10, %.thread.i9 ], [ 0, %evmap_signal_foreach_signal.exit ]
  %23 = load ptr, ptr %18, align 8
  %24 = getelementptr inbounds nuw ptr, ptr %23, i64 %indvars.iv.i4
  %25 = load ptr, ptr %24, align 8
  %.not.i5 = icmp eq ptr %25, null
  br i1 %.not.i5, label %.thread.i9, label %26

26:                                               ; preds = %.lr.ph.i3
  %27 = load ptr, ptr %25, align 8
  %.not2.i.i11 = icmp eq ptr %27, null
  br i1 %.not2.i.i11, label %.thread.i9, label %.lr.ph.i.i12

.lr.ph.i.i12:                                     ; preds = %26, %.lr.ph.i.i12
  %28 = phi ptr [ %30, %.lr.ph.i.i12 ], [ %27, %26 ]
  %29 = tail call i32 @event_del(ptr noundef nonnull %28) #7
  %30 = load ptr, ptr %25, align 8
  %.not.i.i13 = icmp eq ptr %30, null
  br i1 %.not.i.i13, label %..thread_crit_edge.i7.loopexit, label %.lr.ph.i.i12, !llvm.loop !12

..thread_crit_edge.i7.loopexit:                   ; preds = %.lr.ph.i.i12
  %.pre.i8.pre = load i32, ptr %19, align 8
  br label %.thread.i9

.thread.i9:                                       ; preds = %26, %..thread_crit_edge.i7.loopexit, %.lr.ph.i3
  %.pre.i818 = phi i32 [ %.pre.i817, %.lr.ph.i3 ], [ %.pre.i8.pre, %..thread_crit_edge.i7.loopexit ], [ %.pre.i817, %26 ]
  %31 = phi i32 [ %22, %.lr.ph.i3 ], [ %.pre.i8.pre, %..thread_crit_edge.i7.loopexit ], [ %.pre.i817, %26 ]
  %indvars.iv.next.i10 = add nuw nsw i64 %indvars.iv.i4, 1
  %32 = sext i32 %31 to i64
  %33 = icmp slt i64 %indvars.iv.next.i10, %32
  br i1 %33, label %.lr.ph.i3, label %evmap_io_foreach_fd.exit, !llvm.loop !10

evmap_io_foreach_fd.exit:                         ; preds = %.thread.i9, %evmap_signal_foreach_signal.exit
  ret void
}